target datalayout = "e-m:e-p270:32:32-p271:32:32-p272:64:64-i64:64-i128:128-f80:128-n8:16:32:64-S128"
target triple = "x86_64-pc-linux-gnu"

%struct.AVFilterContext = type { ptr, ptr, ptr, ptr, ptr, i32, ptr, ptr, i32, ptr, ptr, i32, i32, ptr, ptr, ptr, ptr, i32, ptr, i32, i32 }
%struct.ColorCorrectContext = type { ptr, float, float, float, float, float, i32, i32, float, float, i32, i32, [4 x i32], [4 x i32], ptr, ptr, ptr, ptr, ptr }
%struct.AVChannelLayout = type { i32, i32, %union.anon.1, ptr }
%union.anon.1 = type { i64 }
%struct.AVRational = type { i32, i32 }
%struct.AVFrame = type { [8 x ptr], [8 x i32], ptr, i32, i32, i32, i32, i32, %struct.AVRational, i64, i64, %struct.AVRational, i32, ptr, i32, i32, [8 x ptr], ptr, i32, ptr, i32, i32, i32, i32, i32, i32, i32, i64, ptr, i32, ptr, ptr, i64, i64, i64, i64, ptr, %struct.AVChannelLayout, i64 }

; Function Attrs: nounwind uwtable
define internal i32 @median_8(ptr noundef %0, ptr noundef %1, i32 noundef %2, i32 noundef %3) #2 {
  %5 = alloca ptr, align 8
  %6 = alloca ptr, align 8
  %7 = alloca i32, align 4
  %8 = alloca i32, align 4
  %9 = alloca ptr, align 8
  %10 = alloca ptr, align 8
  %11 = alloca float, align 4
  %12 = alloca i32, align 4
  %13 = alloca i32, align 4
  %14 = alloca i64, align 8
  %15 = alloca i64, align 8
  %16 = alloca ptr, align 8
  %17 = alloca ptr, align 8
  %18 = alloca ptr, align 8
  %19 = alloca ptr, align 8
  %20 = alloca i32, align 4
  %21 = alloca i32, align 4
  %22 = alloca i32, align 4
  %23 = alloca i32, align 4
  %24 = alloca i32, align 4
  %25 = alloca i32, align 4
  %26 = alloca i32, align 4
  %27 = alloca i32, align 4
  %28 = alloca i32, align 4
  %29 = alloca i32, align 4
  store ptr %0, ptr %5, align 8, !tbaa !4
  store ptr %1, ptr %6, align 8, !tbaa !71
  store i32 %2, ptr %7, align 4, !tbaa !41
  store i32 %3, ptr %8, align 4, !tbaa !41
  call void @llvm.lifetime.start.p0(i64 8, ptr %9) #9
  %30 = load ptr, ptr %5, align 8, !tbaa !4
  %31 = getelementptr inbounds nuw %struct.AVFilterContext, ptr %30, i32 0, i32 9
  %32 = load ptr, ptr %31, align 8, !tbaa !9
  store ptr %32, ptr %9, align 8, !tbaa !22
  call void @llvm.lifetime.start.p0(i64 8, ptr %10) #9
  %33 = load ptr, ptr %6, align 8, !tbaa !71
  store ptr %33, ptr %10, align 8, !tbaa !26
  call void @llvm.lifetime.start.p0(i64 4, ptr %11) #9
  %34 = load ptr, ptr %9, align 8, !tbaa !22
  %35 = getelementptr inbounds nuw %struct.ColorCorrectContext, ptr %34, i32 0, i32 9
  %36 = load float, ptr %35, align 8, !tbaa !60
  store float %36, ptr %11, align 4, !tbaa !42
  call void @llvm.lifetime.start.p0(i64 4, ptr %12) #9
  %37 = load ptr, ptr %9, align 8, !tbaa !22
  %38 = getelementptr inbounds nuw %struct.ColorCorrectContext, ptr %37, i32 0, i32 13
  %39 = getelementptr inbounds [4 x i32], ptr %38, i64 0, i64 1
  %40 = load i32, ptr %39, align 4, !tbaa !41
  store i32 %40, ptr %12, align 4, !tbaa !41
  call void @llvm.lifetime.start.p0(i64 4, ptr %13) #9
  %41 = load ptr, ptr %9, align 8, !tbaa !22
  %42 = getelementptr inbounds nuw %struct.ColorCorrectContext, ptr %41, i32 0, i32 12
  %43 = getelementptr inbounds [4 x i32], ptr %42, i64 0, i64 1
  %44 = load i32, ptr %43, align 4, !tbaa !41
  store i32 %44, ptr %13, align 4, !tbaa !41
  call void @llvm.lifetime.start.p0(i64 8, ptr %14) #9
  %45 = load ptr, ptr %10, align 8, !tbaa !26
  %46 = getelementptr inbounds nuw %struct.AVFrame, ptr %45, i32 0, i32 1
  %47 = getelementptr inbounds [8 x i32], ptr %46, i64 0, i64 1
  %48 = load i32, ptr %47, align 4, !tbaa !41
  %49 = sext i32 %48 to i64
  store i64 %49, ptr %14, align 8, !tbaa !72
  call void @llvm.lifetime.start.p0(i64 8, ptr %15) #9
  %50 = load ptr, ptr %10, align 8, !tbaa !26
  %51 = getelementptr inbounds nuw %struct.AVFrame, ptr %50, i32 0, i32 1
  %52 = getelementptr inbounds [8 x i32], ptr %51, i64 0, i64 2
  %53 = load i32, ptr %52, align 8, !tbaa !41
  %54 = sext i32 %53 to i64
  store i64 %54, ptr %15, align 8, !tbaa !72
  call void @llvm.lifetime.start.p0(i64 8, ptr %16) #9
  %55 = load ptr, ptr %10, align 8, !tbaa !26
  %56 = getelementptr inbounds nuw %struct.AVFrame, ptr %55, i32 0, i32 0
  %57 = getelementptr inbounds [8 x ptr], ptr %56, i64 0, i64 1
  %58 = load ptr, ptr %57, align 8, !tbaa !73
  store ptr %58, ptr %16, align 8, !tbaa !73
  call void @llvm.lifetime.start.p0(i64 8, ptr %17) #9
  %59 = load ptr, ptr %10, align 8, !tbaa !26
  %60 = getelementptr inbounds nuw %struct.AVFrame, ptr %59, i32 0, i32 0
  %61 = getelementptr inbounds [8 x ptr], ptr %60, i64 0, i64 2
  %62 = load ptr, ptr %61, align 8, !tbaa !73
  store ptr %62, ptr %17, align 8, !tbaa !73
  call void @llvm.lifetime.start.p0(i64 8, ptr %18) #9
  %63 = load ptr, ptr %9, align 8, !tbaa !22
  %64 = getelementptr inbounds nuw %struct.ColorCorrectContext, ptr %63, i32 0, i32 14
  %65 = load ptr, ptr %64, align 8, !tbaa !61
  store ptr %65, ptr %18, align 8, !tbaa !92
  call void @llvm.lifetime.start.p0(i64 8, ptr %19) #9
  %66 = load ptr, ptr %9, align 8, !tbaa !22
  %67 = getelementptr inbounds nuw %struct.ColorCorrectContext, ptr %66, i32 0, i32 15
  %68 = load ptr, ptr %67, align 8, !tbaa !62
  store ptr %68, ptr %19, align 8, !tbaa !92
  call void @llvm.lifetime.start.p0(i64 4, ptr %20) #9
  %69 = load i32, ptr %12, align 4, !tbaa !41
  %70 = load i32, ptr %13, align 4, !tbaa !41
  %71 = mul nsw i32 %69, %70
  %72 = sdiv i32 %71, 2
  store i32 %72, ptr %20, align 4, !tbaa !41
  call void @llvm.lifetime.start.p0(i64 4, ptr %21) #9
  %73 = load ptr, ptr %9, align 8, !tbaa !22
  %74 = getelementptr inbounds nuw %struct.ColorCorrectContext, ptr %73, i32 0, i32 8
  %75 = load float, ptr %74, align 4, !tbaa !59
  %76 = fptosi float %75 to i32
  store i32 %76, ptr %21, align 4, !tbaa !41
  call void @llvm.lifetime.start.p0(i64 4, ptr %22) #9
  %77 = load ptr, ptr %9, align 8, !tbaa !22
  %78 = getelementptr inbounds nuw %struct.ColorCorrectContext, ptr %77, i32 0, i32 8
  %79 = load float, ptr %78, align 4, !tbaa !59
  %80 = fptosi float %79 to i32
  store i32 %80, ptr %22, align 4, !tbaa !41
  call void @llvm.lifetime.start.p0(i64 4, ptr %23) #9
  store i32 0, ptr %23, align 4, !tbaa !41
  call void @llvm.lifetime.start.p0(i64 4, ptr %24) #9
  store i32 0, ptr %24, align 4, !tbaa !41
  %81 = load ptr, ptr %18, align 8, !tbaa !92
  %82 = load ptr, ptr %9, align 8, !tbaa !22
  %83 = getelementptr inbounds nuw %struct.ColorCorrectContext, ptr %82, i32 0, i32 8
  %84 = load float, ptr %83, align 4, !tbaa !59
  %85 = fadd nsz float %84, 1.000000e+00
  %86 = fmul nsz float 4.000000e+00, %85
  %87 = fptoui float %86 to i64
  call void @llvm.memset.p0.i64(ptr align 4 %81, i8 0, i64 %87, i1 false)
  %88 = load ptr, ptr %19, align 8, !tbaa !92
  %89 = load ptr, ptr %9, align 8, !tbaa !22
  %90 = getelementptr inbounds nuw %struct.ColorCorrectContext, ptr %89, i32 0, i32 8
  %91 = load float, ptr %90, align 4, !tbaa !59
  %92 = fadd nsz float %91, 1.000000e+00
  %93 = fmul nsz float 4.000000e+00, %92
  %94 = fptoui float %93 to i64
  call void @llvm.memset.p0.i64(ptr align 4 %88, i8 0, i64 %94, i1 false)
  call void @llvm.lifetime.start.p0(i64 4, ptr %25) #9
  store i32 0, ptr %25, align 4, !tbaa !41
  br label %95

95:                                               ; preds = %137, %4
  %96 = load i32, ptr %25, align 4, !tbaa !41
  %97 = load i32, ptr %13, align 4, !tbaa !41
  %98 = icmp slt i32 %96, %97
  br i1 %98, label %100, label %99

99:                                               ; preds = %95
  store i32 2, ptr %26, align 4
  call void @llvm.lifetime.end.p0(i64 4, ptr %25) #9
  br label %140

100:                                              ; preds = %95
  call void @llvm.lifetime.start.p0(i64 4, ptr %27) #9
  store i32 0, ptr %27, align 4, !tbaa !41
  br label %101

101:                                              ; preds = %127, %100
  %102 = load i32, ptr %27, align 4, !tbaa !41
  %103 = load i32, ptr %12, align 4, !tbaa !41
  %104 = icmp slt i32 %102, %103
  br i1 %104, label %106, label %105

105:                                              ; preds = %101
  store i32 5, ptr %26, align 4
  call void @llvm.lifetime.end.p0(i64 4, ptr %27) #9
  br label %130

106:                                              ; preds = %101
  %107 = load ptr, ptr %18, align 8, !tbaa !92
  %108 = load ptr, ptr %16, align 8, !tbaa !73
  %109 = load i32, ptr %27, align 4, !tbaa !41
  %110 = sext i32 %109 to i64
  %111 = getelementptr inbounds i8, ptr %108, i64 %110
  %112 = load i8, ptr %111, align 1, !tbaa !75
  %113 = zext i8 %112 to i64
  %114 = getelementptr inbounds nuw i32, ptr %107, i64 %113
  %115 = load i32, ptr %114, align 4, !tbaa !41
  %116 = add i32 %115, 1
  store i32 %116, ptr %114, align 4, !tbaa !41
  %117 = load ptr, ptr %19, align 8, !tbaa !92
  %118 = load ptr, ptr %17, align 8, !tbaa !73
  %119 = load i32, ptr %27, align 4, !tbaa !41
  %120 = sext i32 %119 to i64
  %121 = getelementptr inbounds i8, ptr %118, i64 %120
  %122 = load i8, ptr %121, align 1, !tbaa !75
  %123 = zext i8 %122 to i64
  %124 = getelementptr inbounds nuw i32, ptr %117, i64 %123
  %125 = load i32, ptr %124, align 4, !tbaa !41
  %126 = add i32 %125, 1
  store i32 %126, ptr %124, align 4, !tbaa !41
  br label %127

127:                                              ; preds = %106
  %128 = load i32, ptr %27, align 4, !tbaa !41
  %129 = add nsw i32 %128, 1
  store i32 %129, ptr %27, align 4, !tbaa !41
  br label %101, !llvm.loop !93

130:                                              ; preds = %105
  %131 = load i64, ptr %14, align 8, !tbaa !72
  %132 = load ptr, ptr %16, align 8, !tbaa !73
  %133 = getelementptr inbounds i8, ptr %132, i64 %131
  store ptr %133, ptr %16, align 8, !tbaa !73
  %134 = load i64, ptr %15, align 8, !tbaa !72
  %135 = load ptr, ptr %17, align 8, !tbaa !73
  %136 = getelementptr inbounds i8, ptr %135, i64 %134
  store ptr %136, ptr %17, align 8, !tbaa !73
  br label %137

137:                                              ; preds = %130
  %138 = load i32, ptr %25, align 4, !tbaa !41
  %139 = add nsw i32 %138, 1
  store i32 %139, ptr %25, align 4, !tbaa !41
  br label %95, !llvm.loop !94

140:                                              ; preds = %99
  call void @llvm.lifetime.start.p0(i64 4, ptr %28) #9
  store i32 0, ptr %28, align 4, !tbaa !41
  br label %141

141:                                              ; preds = %164, %140
  %142 = load i32, ptr %28, align 4, !tbaa !41
  %143 = sitofp i32 %142 to float
  %144 = load ptr, ptr %9, align 8, !tbaa !22
  %145 = getelementptr inbounds nuw %struct.ColorCorrectContext, ptr %144, i32 0, i32 8
  %146 = load float, ptr %145, align 4, !tbaa !59
  %147 = fadd nsz float %146, 1.000000e+00
  %148 = fcmp nsz olt float %143, %147
  br i1 %148, label %150, label %149

149:                                              ; preds = %141
  store i32 8, ptr %26, align 4
  br label %167

150:                                              ; preds = %141
  %151 = load ptr, ptr %18, align 8, !tbaa !92
  %152 = load i32, ptr %28, align 4, !tbaa !41
  %153 = sext i32 %152 to i64
  %154 = getelementptr inbounds i32, ptr %151, i64 %153
  %155 = load i32, ptr %154, align 4, !tbaa !41
  %156 = load i32, ptr %23, align 4, !tbaa !41
  %157 = add i32 %156, %155
  store i32 %157, ptr %23, align 4, !tbaa !41
  %158 = load i32, ptr %23, align 4, !tbaa !41
  %159 = load i32, ptr %20, align 4, !tbaa !41
  %160 = icmp uge i32 %158, %159
  br i1 %160, label %161, label %163

161:                                              ; preds = %150
  %162 = load i32, ptr %28, align 4, !tbaa !41
  store i32 %162, ptr %21, align 4, !tbaa !41
  store i32 8, ptr %26, align 4
  br label %167

163:                                              ; preds = %150
  br label %164

164:                                              ; preds = %163
  %165 = load i32, ptr %28, align 4, !tbaa !41
  %166 = add nsw i32 %165, 1
  store i32 %166, ptr %28, align 4, !tbaa !41
  br label %141, !llvm.loop !95

167:                                              ; preds = %161, %149
  call void @llvm.lifetime.end.p0(i64 4, ptr %28) #9
  br label %168

168:                                              ; preds = %167
  call void @llvm.lifetime.start.p0(i64 4, ptr %29) #9
  store i32 0, ptr %29, align 4, !tbaa !41
  br label %169

169:                                              ; preds = %192, %168
  %170 = load i32, ptr %29, align 4, !tbaa !41
  %171 = sitofp i32 %170 to float
  %172 = load ptr, ptr %9, align 8, !tbaa !22
  %173 = getelementptr inbounds nuw %struct.ColorCorrectContext, ptr %172, i32 0, i32 8
  %174 = load float, ptr %173, align 4, !tbaa !59
  %175 = fadd nsz float %174, 1.000000e+00
  %176 = fcmp nsz olt float %171, %175
  br i1 %176, label %178, label %177

177:                                              ; preds = %169
  store i32 11, ptr %26, align 4
  br label %195

178:                                              ; preds = %169
  %179 = load ptr, ptr %19, align 8, !tbaa !92
  %180 = load i32, ptr %29, align 4, !tbaa !41
  %181 = sext i32 %180 to i64
  %182 = getelementptr inbounds i32, ptr %179, i64 %181
  %183 = load i32, ptr %182, align 4, !tbaa !41
  %184 = load i32, ptr %24, align 4, !tbaa !41
  %185 = add i32 %184, %183
  store i32 %185, ptr %24, align 4, !tbaa !41
  %186 = load i32, ptr %24, align 4, !tbaa !41
  %187 = load i32, ptr %20, align 4, !tbaa !41
  %188 = icmp uge i32 %186, %187
  br i1 %188, label %189, label %191

189:                                              ; preds = %178
  %190 = load i32, ptr %29, align 4, !tbaa !41
  store i32 %190, ptr %22, align 4, !tbaa !41
  store i32 11, ptr %26, align 4
  br label %195

191:                                              ; preds = %178
  br label %192

192:                                              ; preds = %191
  %193 = load i32, ptr %29, align 4, !tbaa !41
  %194 = add nsw i32 %193, 1
  store i32 %194, ptr %29, align 4, !tbaa !41
  br label %169, !llvm.loop !96

195:                                              ; preds = %189, %177
  call void @llvm.lifetime.end.p0(i64 4, ptr %29) #9
  br label %196

196:                                              ; preds = %195
  %197 = load float, ptr %11, align 4, !tbaa !42
  %198 = load i32, ptr %21, align 4, !tbaa !41
  %199 = sitofp i32 %198 to float
  %200 = call nsz float @llvm.fmuladd.f32(float %197, float %199, float -5.000000e-01)
  %201 = load ptr, ptr %9, align 8, !tbaa !22
  %202 = getelementptr inbounds nuw %struct.ColorCorrectContext, ptr %201, i32 0, i32 16
  %203 = load ptr, ptr %202, align 8, !tbaa !44
  %204 = getelementptr inbounds [4 x float], ptr %203, i64 0
  %205 = getelementptr inbounds [4 x float], ptr %204, i64 0, i64 0
  store float %200, ptr %205, align 4, !tbaa !42
  %206 = load float, ptr %11, align 4, !tbaa !42
  %207 = load i32, ptr %22, align 4, !tbaa !41
  %208 = sitofp i32 %207 to float
  %209 = call nsz float @llvm.fmuladd.f32(float %206, float %208, float -5.000000e-01)
  %210 = load ptr, ptr %9, align 8, !tbaa !22
  %211 = getelementptr inbounds nuw %struct.ColorCorrectContext, ptr %210, i32 0, i32 16
  %212 = load ptr, ptr %211, align 8, !tbaa !44
  %213 = getelementptr inbounds [4 x float], ptr %212, i64 0
  %214 = getelementptr inbounds [4 x float], ptr %213, i64 0, i64 1
  store float %209, ptr %214, align 4, !tbaa !42
  %215 = load float, ptr %11, align 4, !tbaa !42
  %216 = load i32, ptr %21, align 4, !tbaa !41
  %217 = sitofp i32 %216 to float
  %218 = call nsz float @llvm.fmuladd.f32(float %215, float %217, float -5.000000e-01)
  %219 = load ptr, ptr %9, align 8, !tbaa !22
  %220 = getelementptr inbounds nuw %struct.ColorCorrectContext, ptr %219, i32 0, i32 16
  %221 = load ptr, ptr %220, align 8, !tbaa !44
  %222 = getelementptr inbounds [4 x float], ptr %221, i64 0
  %223 = getelementptr inbounds [4 x float], ptr %222, i64 0, i64 2
  store float %218, ptr %223, align 4, !tbaa !42
  %224 = load float, ptr %11, align 4, !tbaa !42
  %225 = load i32, ptr %22, align 4, !tbaa !41
  %226 = sitofp i32 %225 to float
  %227 = call nsz float @llvm.fmuladd.f32(float %224, float %226, float -5.000000e-01)
  %228 = load ptr, ptr %9, align 8, !tbaa !22
  %229 = getelementptr inbounds nuw %struct.ColorCorrectContext, ptr %228, i32 0, i32 16
  %230 = load ptr, ptr %229, align 8, !tbaa !44
  %231 = getelementptr inbounds [4 x float], ptr %230, i64 0
  %232 = getelementptr inbounds [4 x float], ptr %231, i64 0, i64 3
  store float %227, ptr %232, align 4, !tbaa !42
  store i32 1, ptr %26, align 4
  call void @llvm.lifetime.end.p0(i64 4, ptr %24) #9
  call void @llvm.lifetime.end.p0(i64 4, ptr %23) #9
  call void @llvm.lifetime.end.p0(i64 4, ptr %22) #9
  call void @llvm.lifetime.end.p0(i64 4, ptr %21) #9
  call void @llvm.lifetime.end.p0(i64 4, ptr %20) #9
  call void @llvm.lifetime.end.p0(i64 8, ptr %19) #9
  call void @llvm.lifetime.end.p0(i64 8, ptr %18) #9
  call void @llvm.lifetime.end.p0(i64 8, ptr %17) #9
  call void @llvm.lifetime.end.p0(i64 8, ptr %16) #9
  call void @llvm.lifetime.end.p0(i64 8, ptr %15) #9
  call void @llvm.lifetime.end.p0(i64 8, ptr %14) #9
  call void @llvm.lifetime.end.p0(i64 4, ptr %13) #9
  call void @llvm.lifetime.end.p0(i64 4, ptr %12) #9
  call void @llvm.lifetime.end.p0(i64 4, ptr %11) #9
  call void @llvm.lifetime.end.p0(i64 8, ptr %10) #9
  call void @llvm.lifetime.end.p0(i64 8, ptr %9) #9
  ret i32 0
}