; Function Attrs: nofree norecurse nosync nounwind memory(readwrite, inaccessiblemem: none) uwtable
define internal noundef i32 @median_8(ptr noundef readonly captures(none) %0, ptr noundef readonly captures(none) %1, i32 %2, i32 %3) #4 {
  %5 = getelementptr inbounds nuw i8, ptr %0, i64 72
  %6 = load ptr, ptr %5, align 8, !tbaa !4
  %7 = getelementptr inbounds nuw i8, ptr %6, i64 40
  %8 = load float, ptr %7, align 8, !tbaa !53
  %9 = getelementptr inbounds nuw i8, ptr %6, i64 72
  %10 = load i32, ptr %9, align 4, !tbaa !35
  %11 = getelementptr inbounds nuw i8, ptr %6, i64 56
  %12 = load i32, ptr %11, align 4, !tbaa !35
  %13 = getelementptr inbounds nuw i8, ptr %1, i64 68
  %14 = load i32, ptr %13, align 4, !tbaa !35
  %15 = sext i32 %14 to i64
  %16 = getelementptr inbounds nuw i8, ptr %1, i64 72
  %17 = load i32, ptr %16, align 8, !tbaa !35
  %18 = sext i32 %17 to i64
  %19 = getelementptr inbounds nuw i8, ptr %1, i64 8
  %20 = load ptr, ptr %19, align 8, !tbaa !65
  %21 = getelementptr inbounds nuw i8, ptr %1, i64 16
  %22 = load ptr, ptr %21, align 8, !tbaa !65
  %23 = getelementptr inbounds nuw i8, ptr %6, i64 88
  %24 = load ptr, ptr %23, align 8, !tbaa !54
  %25 = getelementptr inbounds nuw i8, ptr %6, i64 96
  %26 = load ptr, ptr %25, align 8, !tbaa !55
  %27 = mul nsw i32 %12, %10
  %28 = sdiv i32 %27, 2
  %29 = getelementptr inbounds nuw i8, ptr %6, i64 36
  %30 = load float, ptr %29, align 4, !tbaa !52
  %31 = fptosi float %30 to i32
  %32 = fadd nsz float %30, 1.000000e+00
  %33 = fmul nsz float %32, 4.000000e+00
  %34 = fptoui float %33 to i64
  tail call void @llvm.memset.p0.i64(ptr align 4 %24, i8 0, i64 %34, i1 false)
  %35 = load float, ptr %29, align 4, !tbaa !52
  %36 = fadd nsz float %35, 1.000000e+00
  %37 = fmul nsz float %36, 4.000000e+00
  %38 = fptoui float %37 to i64
  tail call void @llvm.memset.p0.i64(ptr align 4 %26, i8 0, i64 %38, i1 false)
  %39 = icmp sgt i32 %12, 0
  %40 = icmp sgt i32 %10, 0
  %or.cond = select i1 %39, i1 %40, i1 false
  br i1 %or.cond, label %.preheader76.us.preheader, label %.preheader

.preheader76.us.preheader:                        ; preds = %4
  %wide.trip.count = zext nneg i32 %10 to i64
  br label %.preheader76.us

.preheader76.us:                                  ; preds = %.preheader76.us.preheader, %._crit_edge.us
  %.06680.us = phi i32 [ %56, %._crit_edge.us ], [ 0, %.preheader76.us.preheader ]
  %.07179.us = phi ptr [ %54, %._crit_edge.us ], [ %20, %.preheader76.us.preheader ]
  %.07278.us = phi ptr [ %55, %._crit_edge.us ], [ %22, %.preheader76.us.preheader ]
  br label %41

41:                                               ; preds = %.preheader76.us, %41
  %indvars.iv = phi i64 [ 0, %.preheader76.us ], [ %indvars.iv.next, %41 ]
  %42 = getelementptr inbounds nuw i8, ptr %.07179.us, i64 %indvars.iv
  %43 = load i8, ptr %42, align 1, !tbaa !66
  %44 = zext i8 %43 to i64
  %45 = getelementptr inbounds nuw i32, ptr %24, i64 %44
  %46 = load i32, ptr %45, align 4, !tbaa !35
  %47 = add i32 %46, 1
  store i32 %47, ptr %45, align 4, !tbaa !35
  %48 = getelementptr inbounds nuw i8, ptr %.07278.us, i64 %indvars.iv
  %49 = load i8, ptr %48, align 1, !tbaa !66
  %50 = zext i8 %49 to i64
  %51 = getelementptr inbounds nuw i32, ptr %26, i64 %50
  %52 = load i32, ptr %51, align 4, !tbaa !35
  %53 = add i32 %52, 1
  store i32 %53, ptr %51, align 4, !tbaa !35
  %indvars.iv.next = add nuw nsw i64 %indvars.iv, 1
  %exitcond.not = icmp eq i64 %indvars.iv.next, %wide.trip.count
  br i1 %exitcond.not, label %._crit_edge.us, label %41, !llvm.loop !81

._crit_edge.us:                                   ; preds = %41
  %54 = getelementptr inbounds i8, ptr %.07179.us, i64 %15
  %55 = getelementptr inbounds i8, ptr %.07278.us, i64 %18
  %56 = add nuw nsw i32 %.06680.us, 1
  %exitcond97.not = icmp eq i32 %56, %12
  br i1 %exitcond97.not, label %.preheader, label %.preheader76.us, !llvm.loop !82

.preheader:                                       ; preds = %._crit_edge.us, %4
  %57 = load float, ptr %29, align 4, !tbaa !52
  %58 = fadd nsz float %57, 1.000000e+00
  %59 = fcmp nsz ogt float %58, 0.000000e+00
  br i1 %59, label %.lr.ph, label %._crit_edge91

.lr.ph:                                           ; preds = %.preheader, %63
  %indvars.iv98 = phi i64 [ %indvars.iv.next99, %63 ], [ 0, %.preheader ]
  %.06881 = phi i32 [ %62, %63 ], [ 0, %.preheader ]
  %60 = getelementptr inbounds nuw i32, ptr %24, i64 %indvars.iv98
  %61 = load i32, ptr %60, align 4, !tbaa !35
  %62 = add i32 %61, %.06881
  %.not = icmp ult i32 %62, %28
  br i1 %.not, label %63, label %._crit_edge.split.loop.exit106

63:                                               ; preds = %.lr.ph
  %indvars.iv.next99 = add nuw nsw i64 %indvars.iv98, 1
  %64 = trunc nuw i64 %indvars.iv.next99 to i32
  %65 = uitofp nneg i32 %64 to float
  %66 = fcmp nsz ogt float %58, %65
  br i1 %66, label %.lr.ph, label %._crit_edge, !llvm.loop !83

._crit_edge.split.loop.exit106:                   ; preds = %.lr.ph
  %67 = trunc nuw nsw i64 %indvars.iv98 to i32
  br label %._crit_edge

._crit_edge:                                      ; preds = %63, %._crit_edge.split.loop.exit106
  %.070 = phi i32 [ %67, %._crit_edge.split.loop.exit106 ], [ %31, %63 ]
  br label %.lr.ph90

.lr.ph90:                                         ; preds = %._crit_edge, %71
  %indvars.iv101 = phi i64 [ %indvars.iv.next102, %71 ], [ 0, %._crit_edge ]
  %.06787 = phi i32 [ %70, %71 ], [ 0, %._crit_edge ]
  %68 = getelementptr inbounds nuw i32, ptr %26, i64 %indvars.iv101
  %69 = load i32, ptr %68, align 4, !tbaa !35
  %70 = add i32 %69, %.06787
  %.not75 = icmp ult i32 %70, %28
  br i1 %.not75, label %71, label %._crit_edge91.loopexit.split.loop.exit

71:                                               ; preds = %.lr.ph90
  %indvars.iv.next102 = add nuw nsw i64 %indvars.iv101, 1
  %72 = trunc nuw i64 %indvars.iv.next102 to i32
  %73 = uitofp nneg i32 %72 to float
  %74 = fcmp nsz ogt float %58, %73
  br i1 %74, label %.lr.ph90, label %._crit_edge91, !llvm.loop !84

._crit_edge91.loopexit.split.loop.exit:           ; preds = %.lr.ph90
  %75 = trunc nuw nsw i64 %indvars.iv101 to i32
  br label %._crit_edge91

._crit_edge91:                                    ; preds = %71, %._crit_edge91.loopexit.split.loop.exit, %.preheader
  %.070105 = phi i32 [ %31, %.preheader ], [ %.070, %._crit_edge91.loopexit.split.loop.exit ], [ %.070, %71 ]
  %.069 = phi i32 [ %31, %.preheader ], [ %75, %._crit_edge91.loopexit.split.loop.exit ], [ %31, %71 ]
  %76 = sitofp i32 %.070105 to float
  %77 = tail call nsz float @llvm.fmuladd.f32(float %8, float %76, float -5.000000e-01)
  %78 = getelementptr inbounds nuw i8, ptr %6, i64 104
  %79 = load ptr, ptr %78, align 8, !tbaa !36
  store float %77, ptr %79, align 4, !tbaa !41
  %80 = sitofp i32 %.069 to float
  %81 = tail call nsz float @llvm.fmuladd.f32(float %8, float %80, float -5.000000e-01)
  %82 = getelementptr inbounds nuw i8, ptr %79, i64 4
  store float %81, ptr %82, align 4, !tbaa !41
  %83 = getelementptr inbounds nuw i8, ptr %79, i64 8
  store float %77, ptr %83, align 4, !tbaa !41
  %84 = getelementptr inbounds nuw i8, ptr %79, i64 12
  store float %81, ptr %84, align 4, !tbaa !41
  ret i32 0
}